target datalayout = "e-m:e-p270:32:32-p271:32:32-p272:64:64-i64:64-i128:128-f80:128-n8:16:32:64-S128"
target triple = "x86_64-unknown-linux-gnu"

%"class.net::QuicSentPacketManager" = type { %"class.net::QuicSentPacketManagerInterface", %"class.net::QuicUnackedPacketMap", %class.linked_hash_map, i32, i8, ptr, ptr, ptr, ptr, ptr, i64, %"class.net::RttStats", %"class.std::unique_ptr", ptr, %"class.net::GeneralLossAlgorithm", i8, i64, i64, i64, i64, i64, i64, i64, i64, i8, i8, i8, i8, %"class.std::vector", %"class.std::vector", i64, i16, [6 x i8], %"class.net::PacingSender", i8, %"class.net::QuicSustainedBandwidthRecorder" }
%"class.net::QuicSentPacketManagerInterface" = type { ptr }
%"class.net::QuicUnackedPacketMap" = type { i64, i64, %"class.std::deque", i64, i64, i64 }
%"class.std::deque" = type { %"class.std::_Deque_base" }
%"class.std::_Deque_base" = type { %"struct.std::_Deque_base<net::TransmissionInfo, std::allocator<net::TransmissionInfo>>::_Deque_impl" }
%"struct.std::_Deque_base<net::TransmissionInfo, std::allocator<net::TransmissionInfo>>::_Deque_impl" = type { %"struct.std::_Deque_base<net::TransmissionInfo, std::allocator<net::TransmissionInfo>>::_Deque_impl_data" }
%"struct.std::_Deque_base<net::TransmissionInfo, std::allocator<net::TransmissionInfo>>::_Deque_impl_data" = type { ptr, i64, %"struct.std::_Deque_iterator", %"struct.std::_Deque_iterator" }
%"struct.std::_Deque_iterator" = type { ptr, ptr, ptr, ptr }
%class.linked_hash_map = type { %"class.std::unordered_map", %"class.std::__cxx11::list" }
%"class.std::unordered_map" = type { %"class.std::_Hashtable" }
%"class.std::_Hashtable" = type { ptr, i64, %"struct.std::__detail::_Hash_node_base", i64, %"struct.std::__detail::_Prime_rehash_policy", ptr }
%"struct.std::__detail::_Hash_node_base" = type { ptr }
%"struct.std::__detail::_Prime_rehash_policy" = type { float, i64 }
%"class.std::__cxx11::list" = type { %"class.std::__cxx11::_List_base" }
%"class.std::__cxx11::_List_base" = type { %"struct.std::__cxx11::_List_base<std::pair<unsigned long, net::TransmissionType>, std::allocator<std::pair<unsigned long, net::TransmissionType>>>::_List_impl" }
%"struct.std::__cxx11::_List_base<std::pair<unsigned long, net::TransmissionType>, std::allocator<std::pair<unsigned long, net::TransmissionType>>>::_List_impl" = type { %"struct.std::__detail::_List_node_header" }
%"struct.std::__detail::_List_node_header" = type { %"struct.std::__detail::_List_node_base", i64 }
%"struct.std::__detail::_List_node_base" = type { ptr, ptr }
%"class.net::RttStats" = type { %"class.net::QuicTime::Delta", %"class.net::QuicTime::Delta", %"class.net::QuicTime::Delta", %"class.net::QuicTime::Delta", %"class.net::QuicTime::Delta", i64, %"class.net::QuicTime::Delta", %"class.net::QuicTime", i32, %"class.net::WindowedFilter" }
%"class.net::QuicTime::Delta" = type { %"class.base::TimeDelta", i64 }
%"class.base::TimeDelta" = type { i64 }
%"class.net::QuicTime" = type { i64 }
%"class.net::WindowedFilter" = type { %"class.net::QuicTime::Delta", %"class.net::QuicTime::Delta", [3 x %"struct.net::WindowedFilter<net::QuicTime::Delta, net::MinFilter<net::QuicTime::Delta>, net::QuicTime, net::QuicTime::Delta>::Sample"] }
%"struct.net::WindowedFilter<net::QuicTime::Delta, net::MinFilter<net::QuicTime::Delta>, net::QuicTime, net::QuicTime::Delta>::Sample" = type { %"class.net::QuicTime::Delta", %"class.net::QuicTime" }
%"class.std::unique_ptr" = type { %"struct.std::__uniq_ptr_data" }
%"struct.std::__uniq_ptr_data" = type { %"class.std::__uniq_ptr_impl" }
%"class.std::__uniq_ptr_impl" = type { %"class.std::tuple" }
%"class.std::tuple" = type { %"struct.std::_Tuple_impl" }
%"struct.std::_Tuple_impl" = type { %"struct.std::_Head_base.9" }
%"struct.std::_Head_base.9" = type { ptr }
%"class.net::GeneralLossAlgorithm" = type { %"class.net::LossDetectionInterface", %"class.net::QuicTime", i64, i32, i32 }
%"class.net::LossDetectionInterface" = type { ptr }
%"class.std::vector" = type { %"struct.std::_Vector_base" }
%"struct.std::_Vector_base" = type { %"struct.std::_Vector_base<std::pair<unsigned long, unsigned short>, std::allocator<std::pair<unsigned long, unsigned short>>>::_Vector_impl" }
%"struct.std::_Vector_base<std::pair<unsigned long, unsigned short>, std::allocator<std::pair<unsigned long, unsigned short>>>::_Vector_impl" = type { %"struct.std::_Vector_base<std::pair<unsigned long, unsigned short>, std::allocator<std::pair<unsigned long, unsigned short>>>::_Vector_impl_data" }
%"struct.std::_Vector_base<std::pair<unsigned long, unsigned short>, std::allocator<std::pair<unsigned long, unsigned short>>>::_Vector_impl_data" = type { ptr, ptr, ptr }
%"class.net::PacingSender" = type <{ ptr, %"class.net::QuicBandwidth", i32, [4 x i8], %"class.net::QuicTime", %"class.net::QuicTime", i8, [7 x i8] }>
%"class.net::QuicBandwidth" = type { i64 }
%"class.net::QuicSustainedBandwidthRecorder" = type { i8, i8, i8, %"class.net::QuicBandwidth", %"class.net::QuicBandwidth", i64, %"class.net::QuicTime" }

@_ZN3net12_GLOBAL__N_122kMinHandshakeTimeoutMsE = internal constant i64 10, align 8

; Function Attrs: mustprogress nounwind uwtable
define linkonce_odr dso_local void @_ZN4base9TimeDeltaC2Ev(ptr noundef nonnull align 8 dereferenceable(8) %this) unnamed_addr #1 comdat align 2 {
entry:
  %this.addr = alloca ptr, align 8
  store ptr %this, ptr %this.addr, align 8
  %this1 = load ptr, ptr %this.addr, align 8
  %delta_ = getelementptr inbounds %"class.base::TimeDelta", ptr %this1, i32 0, i32 0
  store i64 0, ptr %delta_, align 8
  ret void
}

; Function Attrs: mustprogress nounwind uwtable
define linkonce_odr dso_local noundef nonnull align 8 dereferenceable(8) ptr @_ZN4base9TimeDeltaaSES0_(ptr noundef nonnull align 8 dereferenceable(8) %this, i64 %other.coerce) #1 comdat align 2 {
entry:
  %other = alloca %"class.base::TimeDelta", align 8
  %this.addr = alloca ptr, align 8
  %coerce.dive = getelementptr inbounds %"class.base::TimeDelta", ptr %other, i32 0, i32 0
  store i64 %other.coerce, ptr %coerce.dive, align 8
  store ptr %this, ptr %this.addr, align 8
  %this1 = load ptr, ptr %this.addr, align 8
  %delta_ = getelementptr inbounds %"class.base::TimeDelta", ptr %other, i32 0, i32 0
  %0 = load i64, ptr %delta_, align 8
  %delta_2 = getelementptr inbounds %"class.base::TimeDelta", ptr %this1, i32 0, i32 0
  store i64 %0, ptr %delta_2, align 8
  ret ptr %this1
}

; Function Attrs: mustprogress uwtable
define linkonce_odr dso_local void @_ZN3net8QuicTime5DeltaC2El(ptr noundef nonnull align 8 dereferenceable(16) %this, i64 noundef %time_offset) unnamed_addr #0 comdat align 2 {
entry:
  %this.addr = alloca ptr, align 8
  %time_offset.addr = alloca i64, align 8
  store ptr %this, ptr %this.addr, align 8
  store i64 %time_offset, ptr %time_offset.addr, align 8
  %this1 = load ptr, ptr %this.addr, align 8
  %delta_ = getelementptr inbounds %"class.net::QuicTime::Delta", ptr %this1, i32 0, i32 0
  call void @_ZN4base9TimeDeltaC2Ev(ptr noundef nonnull align 8 dereferenceable(8) %delta_)
  %time_offset_ = getelementptr inbounds %"class.net::QuicTime::Delta", ptr %this1, i32 0, i32 1
  %0 = load i64, ptr %time_offset.addr, align 8
  store i64 %0, ptr %time_offset_, align 8
  ret void
}

; Function Attrs: mustprogress uwtable
define linkonce_odr dso_local { i64, i64 } @_ZN3net8QuicTime5Delta16FromMillisecondsEl(i64 noundef %ms) #0 comdat align 2 {
entry:
  %retval = alloca %"class.net::QuicTime::Delta", align 8
  %ms.addr = alloca i64, align 8
  store i64 %ms, ptr %ms.addr, align 8
  %0 = load i64, ptr %ms.addr, align 8
  %mul = mul nsw i64 %0, 1000
  call void @_ZN3net8QuicTime5DeltaC2El(ptr noundef nonnull align 8 dereferenceable(16) %retval, i64 noundef %mul)
  %1 = load { i64, i64 }, ptr %retval, align 8
  ret { i64, i64 } %1
}

; Function Attrs: mustprogress nounwind uwtable
define linkonce_odr dso_local noundef nonnull align 8 dereferenceable(8) ptr @_ZSt3maxIlERKT_S2_S2_(ptr noundef nonnull align 8 dereferenceable(8) %__a, ptr noundef nonnull align 8 dereferenceable(8) %__b) #1 comdat {
entry:
  %retval = alloca ptr, align 8
  %__a.addr = alloca ptr, align 8
  %__b.addr = alloca ptr, align 8
  store ptr %__a, ptr %__a.addr, align 8
  store ptr %__b, ptr %__b.addr, align 8
  %0 = load ptr, ptr %__a.addr, align 8
  %1 = load i64, ptr %0, align 8
  %2 = load ptr, ptr %__b.addr, align 8
  %3 = load i64, ptr %2, align 8
  %cmp = icmp slt i64 %1, %3
  br i1 %cmp, label %if.then, label %if.end

if.then:                                          ; preds = %entry
  %4 = load ptr, ptr %__b.addr, align 8
  store ptr %4, ptr %retval, align 8
  br label %return

if.end:                                           ; preds = %entry
  %5 = load ptr, ptr %__a.addr, align 8
  store ptr %5, ptr %retval, align 8
  br label %return

return:                                           ; preds = %if.end, %if.then
  %6 = load ptr, ptr %retval, align 8
  ret ptr %6
}

; Function Attrs: mustprogress nounwind uwtable
define linkonce_odr dso_local noundef i64 @_ZNK3net8QuicTime5Delta14ToMillisecondsEv(ptr noundef nonnull align 8 dereferenceable(16) %this) #1 comdat align 2 {
entry:
  %this.addr = alloca ptr, align 8
  store ptr %this, ptr %this.addr, align 8
  %this1 = load ptr, ptr %this.addr, align 8
  %time_offset_ = getelementptr inbounds %"class.net::QuicTime::Delta", ptr %this1, i32 0, i32 1
  %0 = load i64, ptr %time_offset_, align 8
  %div = sdiv i64 %0, 1000
  ret i64 %div
}

; Function Attrs: mustprogress uwtable
define linkonce_odr dso_local noundef nonnull align 8 dereferenceable(16) ptr @_ZN3net8QuicTime5DeltaaSEOS1_(ptr noundef nonnull align 8 dereferenceable(16) %this, ptr noundef nonnull align 8 dereferenceable(16) %0) #0 comdat align 2 {
entry:
  %this.addr = alloca ptr, align 8
  %.addr = alloca ptr, align 8
  %agg.tmp = alloca %"class.base::TimeDelta", align 8
  store ptr %this, ptr %this.addr, align 8
  store ptr %0, ptr %.addr, align 8
  %this1 = load ptr, ptr %this.addr, align 8
  %delta_ = getelementptr inbounds %"class.net::QuicTime::Delta", ptr %this1, i32 0, i32 0
  %1 = load ptr, ptr %.addr, align 8
  %delta_2 = getelementptr inbounds %"class.net::QuicTime::Delta", ptr %1, i32 0, i32 0
  call void @llvm.memcpy.p0.p0.i64(ptr align 8 %agg.tmp, ptr align 8 %delta_2, i64 8, i1 false)
  %coerce.dive = getelementptr inbounds %"class.base::TimeDelta", ptr %agg.tmp, i32 0, i32 0
  %2 = load i64, ptr %coerce.dive, align 8
  %call = call noundef nonnull align 8 dereferenceable(8) ptr @_ZN4base9TimeDeltaaSES0_(ptr noundef nonnull align 8 dereferenceable(8) %delta_, i64 %2)
  %3 = load ptr, ptr %.addr, align 8
  %time_offset_ = getelementptr inbounds %"class.net::QuicTime::Delta", ptr %3, i32 0, i32 1
  %4 = load i64, ptr %time_offset_, align 8
  %time_offset_3 = getelementptr inbounds %"class.net::QuicTime::Delta", ptr %this1, i32 0, i32 1
  store i64 %4, ptr %time_offset_3, align 8
  ret ptr %this1
}

; Function Attrs: mustprogress uwtable
define linkonce_odr dso_local { i64, i64 } @_ZN3net8QuicTime5Delta16FromMicrosecondsEl(i64 noundef %us) #0 comdat align 2 {
entry:
  %retval = alloca %"class.net::QuicTime::Delta", align 8
  %us.addr = alloca i64, align 8
  store i64 %us, ptr %us.addr, align 8
  %0 = load i64, ptr %us.addr, align 8
  call void @_ZN3net8QuicTime5DeltaC2El(ptr noundef nonnull align 8 dereferenceable(16) %retval, i64 noundef %0)
  %1 = load { i64, i64 }, ptr %retval, align 8
  ret { i64, i64 } %1
}

; Function Attrs: mustprogress nounwind uwtable
define linkonce_odr dso_local noundef i64 @_ZNK3net8RttStats14initial_rtt_usEv(ptr noundef nonnull align 8 dereferenceable(224) %this) #1 comdat align 2 {
entry:
  %this.addr = alloca ptr, align 8
  store ptr %this, ptr %this.addr, align 8
  %this1 = load ptr, ptr %this.addr, align 8
  %initial_rtt_us_ = getelementptr inbounds %"class.net::RttStats", ptr %this1, i32 0, i32 5
  %0 = load i64, ptr %initial_rtt_us_, align 8
  ret i64 %0
}

; Function Attrs: mustprogress nounwind uwtable
define linkonce_odr dso_local noundef zeroext i1 @_ZNK3net8QuicTime5Delta6IsZeroEv(ptr noundef nonnull align 8 dereferenceable(16) %this) #1 comdat align 2 {
entry:
  %this.addr = alloca ptr, align 8
  store ptr %this, ptr %this.addr, align 8
  %this1 = load ptr, ptr %this.addr, align 8
  %time_offset_ = getelementptr inbounds %"class.net::QuicTime::Delta", ptr %this1, i32 0, i32 1
  %0 = load i64, ptr %time_offset_, align 8
  %cmp = icmp eq i64 %0, 0
  ret i1 %cmp
}

; Function Attrs: mustprogress nounwind uwtable
define linkonce_odr dso_local { i64, i64 } @_ZNK3net8RttStats12smoothed_rttEv(ptr noundef nonnull align 8 dereferenceable(224) %this) #1 comdat align 2 {
entry:
  %retval = alloca %"class.net::QuicTime::Delta", align 8
  %this.addr = alloca ptr, align 8
  store ptr %this, ptr %this.addr, align 8
  %this1 = load ptr, ptr %this.addr, align 8
  %smoothed_rtt_ = getelementptr inbounds %"class.net::RttStats", ptr %this1, i32 0, i32 2
  call void @llvm.memcpy.p0.p0.i64(ptr align 8 %retval, ptr align 8 %smoothed_rtt_, i64 16, i1 false)
  %0 = load { i64, i64 }, ptr %retval, align 8
  ret { i64, i64 } %0
}

; Function Attrs: mustprogress uwtable
define dso_local { i64, i64 } @_ZNK3net21QuicSentPacketManager28GetCryptoRetransmissionDelayEv(ptr noundef nonnull align 8 dereferenceable(776) %this) #0 align 2 {
entry:
  %retval = alloca %"class.net::QuicTime::Delta", align 8
  %this.addr = alloca ptr, align 8
  %srtt = alloca %"class.net::QuicTime::Delta", align 8
  %ref.tmp = alloca %"class.net::QuicTime::Delta", align 8
  %delay_ms = alloca i64, align 8
  %ref.tmp7 = alloca i64, align 8
  store ptr %this, ptr %this.addr, align 8
  %this1 = load ptr, ptr %this.addr, align 8
  %rtt_stats_ = getelementptr inbounds %"class.net::QuicSentPacketManager", ptr %this1, i32 0, i32 11
  %call = call { i64, i64 } @_ZNK3net8RttStats12smoothed_rttEv(ptr noundef nonnull align 8 dereferenceable(224) %rtt_stats_)
  %0 = getelementptr inbounds { i64, i64 }, ptr %srtt, i32 0, i32 0
  %1 = extractvalue { i64, i64 } %call, 0
  store i64 %1, ptr %0, align 8
  %2 = getelementptr inbounds { i64, i64 }, ptr %srtt, i32 0, i32 1
  %3 = extractvalue { i64, i64 } %call, 1
  store i64 %3, ptr %2, align 8
  %call2 = call noundef zeroext i1 @_ZNK3net8QuicTime5Delta6IsZeroEv(ptr noundef nonnull align 8 dereferenceable(16) %srtt)
  br i1 %call2, label %if.then, label %if.end

if.then:                                          ; preds = %entry
  %rtt_stats_3 = getelementptr inbounds %"class.net::QuicSentPacketManager", ptr %this1, i32 0, i32 11
  %call4 = call noundef i64 @_ZNK3net8RttStats14initial_rtt_usEv(ptr noundef nonnull align 8 dereferenceable(224) %rtt_stats_3)
  %call5 = call { i64, i64 } @_ZN3net8QuicTime5Delta16FromMicrosecondsEl(i64 noundef %call4)
  %4 = getelementptr inbounds { i64, i64 }, ptr %ref.tmp, i32 0, i32 0
  %5 = extractvalue { i64, i64 } %call5, 0
  store i64 %5, ptr %4, align 8
  %6 = getelementptr inbounds { i64, i64 }, ptr %ref.tmp, i32 0, i32 1
  %7 = extractvalue { i64, i64 } %call5, 1
  store i64 %7, ptr %6, align 8
  %call6 = call noundef nonnull align 8 dereferenceable(16) ptr @_ZN3net8QuicTime5DeltaaSEOS1_(ptr noundef nonnull align 8 dereferenceable(16) %srtt, ptr noundef nonnull align 8 dereferenceable(16) %ref.tmp)
  br label %if.end

if.end:                                           ; preds = %if.then, %entry
  %call8 = call noundef i64 @_ZNK3net8QuicTime5Delta14ToMillisecondsEv(ptr noundef nonnull align 8 dereferenceable(16) %srtt)
  %conv = sitofp i64 %call8 to double
  %mul = fmul double 1.500000e+00, %conv
  %conv9 = fptosi double %mul to i64
  store i64 %conv9, ptr %ref.tmp7, align 8
  %call10 = call noundef nonnull align 8 dereferenceable(8) ptr @_ZSt3maxIlERKT_S2_S2_(ptr noundef nonnull align 8 dereferenceable(8) @_ZN3net12_GLOBAL__N_122kMinHandshakeTimeoutMsE, ptr noundef nonnull align 8 dereferenceable(8) %ref.tmp7)
  %8 = load i64, ptr %call10, align 8
  store i64 %8, ptr %delay_ms, align 8
  %9 = load i64, ptr %delay_ms, align 8
  %consecutive_crypto_retransmission_count_ = getelementptr inbounds %"class.net::QuicSentPacketManager", ptr %this1, i32 0, i32 21
  %10 = load i64, ptr %consecutive_crypto_retransmission_count_, align 8
  %shl = shl i64 %9, %10
  %call11 = call { i64, i64 } @_ZN3net8QuicTime5Delta16FromMillisecondsEl(i64 noundef %shl)
  %11 = getelementptr inbounds { i64, i64 }, ptr %retval, i32 0, i32 0
  %12 = extractvalue { i64, i64 } %call11, 0
  store i64 %12, ptr %11, align 8
  %13 = getelementptr inbounds { i64, i64 }, ptr %retval, i32 0, i32 1
  %14 = extractvalue { i64, i64 } %call11, 1
  store i64 %14, ptr %13, align 8
  %15 = load { i64, i64 }, ptr %retval, align 8
  ret { i64, i64 } %15
}