; Function Attrs: mustprogress nofree norecurse nosync nounwind willreturn memory(argmem: read) uwtable
define dso_local { i64, i64 } @_ZNK3net21QuicSentPacketManager28GetCryptoRetransmissionDelayEv(ptr nocapture noundef nonnull readonly align 8 dereferenceable(776) %this) local_unnamed_addr #7 align 2 {
entry:
  %retval.sroa.2.0.smoothed_rtt_.sroa_idx.i = getelementptr inbounds i8, ptr %this, i64 304
  %retval.sroa.2.0.copyload.i = load i64, ptr %retval.sroa.2.0.smoothed_rtt_.sroa_idx.i, align 8
  %cmp.i = icmp eq i64 %retval.sroa.2.0.copyload.i, 0
  %initial_rtt_us_.i = getelementptr inbounds i8, ptr %this, i64 344
  %0 = load i64, ptr %initial_rtt_us_.i, align 8
  %srtt.sroa.2.0 = select i1 %cmp.i, i64 %0, i64 %retval.sroa.2.0.copyload.i
  %div.i = sdiv i64 %srtt.sroa.2.0, 1000
  %conv = sitofp i64 %div.i to double
  %mul = fmul double %conv, 1.500000e+00
  %conv9 = fptosi double %mul to i64
  %.sroa.speculated = tail call i64 @llvm.smax.i64(i64 %conv9, i64 10)
  %consecutive_crypto_retransmission_count_ = getelementptr inbounds i8, ptr %this, i64 584
  %1 = load i64, ptr %consecutive_crypto_retransmission_count_, align 8
  %shl = shl i64 %.sroa.speculated, %1
  %mul.i = mul nsw i64 %shl, 1000
  %.fca.1.insert.i5 = insertvalue { i64, i64 } { i64 0, i64 poison }, i64 %mul.i, 1
  ret { i64, i64 } %.fca.1.insert.i5
}